target datalayout = "e-m:e-p270:32:32-p271:32:32-p272:64:64-i64:64-i128:128-f80:128-n8:16:32:64-S128"
target triple = "x86_64-pc-linux-gnu"

%"class.std::chrono::time_point" = type { %"class.std::chrono::duration.2" }
%"class.std::chrono::duration.2" = type { i64 }
%"struct.google::logging::internal::LogMessageData" = type { i32, [30001 x i8], %"class.google::LogMessage::LogStream", i32, i32, { i64, i64 }, %union.anon.27, i64, i64, i64, ptr, ptr, i8, i8, %"class.std::thread::id" }
%"class.google::LogMessage::LogStream" = type { %"class.std::basic_ostream.base", %"class.google::base_logging::LogStreamBuf", i64, ptr, %"class.std::basic_ios" }
%"class.std::basic_ostream.base" = type { ptr }
%"class.google::base_logging::LogStreamBuf" = type { %"class.std::basic_streambuf" }
%"class.std::basic_streambuf" = type { ptr, ptr, ptr, ptr, ptr, ptr, ptr, %"class.std::locale" }
%"class.std::locale" = type { ptr }
%"class.std::basic_ios" = type { %"class.std::ios_base", ptr, i8, i8, ptr, ptr, ptr, ptr }
%"class.std::ios_base" = type { ptr, i64, i64, i32, i32, i32, ptr, %"struct.std::ios_base::_Words", [8 x %"struct.std::ios_base::_Words"], i32, ptr, %"class.std::locale" }
%"struct.std::ios_base::_Words" = type { ptr, i64 }
%union.anon.27 = type { ptr }
%"class.std::thread::id" = type { i64 }
%"class.google::LogMessage" = type { ptr, ptr, %"struct.google::LogMessageTime" }
%"struct.google::LogMessageTime" = type { %struct.tm, %"class.std::chrono::time_point", %"class.std::chrono::duration.28", %"class.std::chrono::duration.29" }
%struct.tm = type { i32, i32, i32, i32, i32, i32, i32, i32, i32, i64, ptr }
%"class.std::chrono::duration.28" = type { i64 }
%"class.std::chrono::duration.29" = type { i64 }

@.str.19 = private unnamed_addr constant [102 x i8] c"generated/home/dtcxzyw/WorkSpace/Projects/compilers/llvm-opt-benchmark/bench/glog/glog/src/logging.cc\00", align 1
@.str.20 = private unnamed_addr constant [20 x i8] c"Check %s failed: %s\00", align 1
@.str.21 = private unnamed_addr constant [91 x i8] c"data_->num_chars_to_log_ > 0 && data_->message_text_[data_->num_chars_to_log_ - 1] == '\\n'\00", align 1
@.str.22 = private unnamed_addr constant [1 x i8] zeroinitializer, align 1

; Function Attrs: mustprogress uwtable
define void @_ZN6google10LogMessage10SendToSinkEv(ptr noundef nonnull align 8 dereferenceable(96) %0) #0 align 2 {
  %2 = alloca ptr, align 8
  store ptr %0, ptr %2, align 8, !tbaa !128
  %3 = load ptr, ptr %2, align 8
  %4 = getelementptr inbounds nuw %"class.google::LogMessage", ptr %3, i32 0, i32 1
  %5 = load ptr, ptr %4, align 8, !tbaa !136
  %6 = getelementptr inbounds nuw %"struct.google::logging::internal::LogMessageData", ptr %5, i32 0, i32 6
  %7 = load ptr, ptr %6, align 8, !tbaa !77
  %8 = icmp ne ptr %7, null
  br i1 %8, label %9, label %80

9:                                                ; preds = %1
  br label %10

10:                                               ; preds = %35, %9
  br i1 false, label %11, label %36

11:                                               ; preds = %10
  br label %12

12:                                               ; preds = %11
  %13 = getelementptr inbounds nuw %"class.google::LogMessage", ptr %3, i32 0, i32 1
  %14 = load ptr, ptr %13, align 8, !tbaa !136
  %15 = getelementptr inbounds nuw %"struct.google::logging::internal::LogMessageData", ptr %14, i32 0, i32 8
  %16 = load i64, ptr %15, align 8, !tbaa !145
  %17 = icmp ugt i64 %16, 0
  br i1 %17, label %18, label %31

18:                                               ; preds = %12
  %19 = getelementptr inbounds nuw %"class.google::LogMessage", ptr %3, i32 0, i32 1
  %20 = load ptr, ptr %19, align 8, !tbaa !136
  %21 = getelementptr inbounds nuw %"struct.google::logging::internal::LogMessageData", ptr %20, i32 0, i32 1
  %22 = getelementptr inbounds nuw %"class.google::LogMessage", ptr %3, i32 0, i32 1
  %23 = load ptr, ptr %22, align 8, !tbaa !136
  %24 = getelementptr inbounds nuw %"struct.google::logging::internal::LogMessageData", ptr %23, i32 0, i32 8
  %25 = load i64, ptr %24, align 8, !tbaa !145
  %26 = sub i64 %25, 1
  %27 = getelementptr inbounds nuw [30001 x i8], ptr %21, i64 0, i64 %26
  %28 = load i8, ptr %27, align 1, !tbaa !77
  %29 = sext i8 %28 to i32
  %30 = icmp eq i32 %29, 10
  br i1 %30, label %34, label %31

31:                                               ; preds = %18, %12
  br label %32

32:                                               ; preds = %31
  call void (i32, ptr, i32, ptr, ...) @_ZN6google8RawLog__ENS_11LogSeverityEPKciS2_z(i32 noundef 3, ptr noundef @.str.19, i32 noundef 1892, ptr noundef @.str.20, ptr noundef @.str.21, ptr noundef @.str.22)
  br label %33

33:                                               ; preds = %32
  br label %34

34:                                               ; preds = %33, %18
  br label %35

35:                                               ; preds = %34
  br label %10, !llvm.loop !159

36:                                               ; preds = %10
  %37 = getelementptr inbounds nuw %"class.google::LogMessage", ptr %3, i32 0, i32 1
  %38 = load ptr, ptr %37, align 8, !tbaa !136
  %39 = getelementptr inbounds nuw %"struct.google::logging::internal::LogMessageData", ptr %38, i32 0, i32 6
  %40 = load ptr, ptr %39, align 8, !tbaa !77
  %41 = getelementptr inbounds nuw %"class.google::LogMessage", ptr %3, i32 0, i32 1
  %42 = load ptr, ptr %41, align 8, !tbaa !136
  %43 = getelementptr inbounds nuw %"struct.google::logging::internal::LogMessageData", ptr %42, i32 0, i32 3
  %44 = load i32, ptr %43, align 8, !tbaa !140
  %45 = getelementptr inbounds nuw %"class.google::LogMessage", ptr %3, i32 0, i32 1
  %46 = load ptr, ptr %45, align 8, !tbaa !136
  %47 = getelementptr inbounds nuw %"struct.google::logging::internal::LogMessageData", ptr %46, i32 0, i32 11
  %48 = load ptr, ptr %47, align 8, !tbaa !148
  %49 = getelementptr inbounds nuw %"class.google::LogMessage", ptr %3, i32 0, i32 1
  %50 = load ptr, ptr %49, align 8, !tbaa !136
  %51 = getelementptr inbounds nuw %"struct.google::logging::internal::LogMessageData", ptr %50, i32 0, i32 10
  %52 = load ptr, ptr %51, align 8, !tbaa !147
  %53 = getelementptr inbounds nuw %"class.google::LogMessage", ptr %3, i32 0, i32 1
  %54 = load ptr, ptr %53, align 8, !tbaa !136
  %55 = getelementptr inbounds nuw %"struct.google::logging::internal::LogMessageData", ptr %54, i32 0, i32 4
  %56 = load i32, ptr %55, align 4, !tbaa !141
  %57 = getelementptr inbounds nuw %"class.google::LogMessage", ptr %3, i32 0, i32 2
  %58 = getelementptr inbounds nuw %"class.google::LogMessage", ptr %3, i32 0, i32 1
  %59 = load ptr, ptr %58, align 8, !tbaa !136
  %60 = getelementptr inbounds nuw %"struct.google::logging::internal::LogMessageData", ptr %59, i32 0, i32 1
  %61 = getelementptr inbounds [30001 x i8], ptr %60, i64 0, i64 0
  %62 = getelementptr inbounds nuw %"class.google::LogMessage", ptr %3, i32 0, i32 1
  %63 = load ptr, ptr %62, align 8, !tbaa !136
  %64 = getelementptr inbounds nuw %"struct.google::logging::internal::LogMessageData", ptr %63, i32 0, i32 7
  %65 = load i64, ptr %64, align 8, !tbaa !150
  %66 = getelementptr inbounds nuw i8, ptr %61, i64 %65
  %67 = getelementptr inbounds nuw %"class.google::LogMessage", ptr %3, i32 0, i32 1
  %68 = load ptr, ptr %67, align 8, !tbaa !136
  %69 = getelementptr inbounds nuw %"struct.google::logging::internal::LogMessageData", ptr %68, i32 0, i32 8
  %70 = load i64, ptr %69, align 8, !tbaa !145
  %71 = getelementptr inbounds nuw %"class.google::LogMessage", ptr %3, i32 0, i32 1
  %72 = load ptr, ptr %71, align 8, !tbaa !136
  %73 = getelementptr inbounds nuw %"struct.google::logging::internal::LogMessageData", ptr %72, i32 0, i32 7
  %74 = load i64, ptr %73, align 8, !tbaa !150
  %75 = sub i64 %70, %74
  %76 = sub i64 %75, 1
  %77 = load ptr, ptr %40, align 8, !tbaa !15
  %78 = getelementptr inbounds ptr, ptr %77, i64 2
  %79 = load ptr, ptr %78, align 8
  call void %79(ptr noundef nonnull align 8 dereferenceable(8) %40, i32 noundef %44, ptr noundef %48, ptr noundef %52, i32 noundef %56, ptr noundef nonnull align 8 dereferenceable(80) %57, ptr noundef %66, i64 noundef %76)
  br label %80

80:                                               ; preds = %36, %1
  ret void
}